; ModuleID = 'probe4.cc5138dda68f028c-cgu.0'
source_filename = "probe4.cc5138dda68f028c-cgu.0"
target datalayout = "e-m:w-p270:32:32-p271:32:32-p272:64:64-i64:64-f80:128-n8:16:32:64-S128"
target triple = "x86_64-pc-windows-msvc"

@alloc_706c3fc6e30d80ca260d8ed67f192104 = private unnamed_addr constant <{ [75 x i8] }> <{ [75 x i8] c"/rustc/82e1608dfa6e0b5569232559e3d385fea5a93112\\library\\core\\src\\num\\mod.rs" }>, align 1
@alloc_96a2e670d7fdcb4626fcf6ae55de9150 = private unnamed_addr constant <{ ptr, [16 x i8] }> <{ ptr @alloc_706c3fc6e30d80ca260d8ed67f192104, [16 x i8] c"K\00\00\00\00\00\00\00y\04\00\00\05\00\00\00" }>, align 8
@str.0 = internal constant [25 x i8] c"attempt to divide by zero"

; probe4::probe
; Function Attrs: uwtable
define void @_ZN6probe45probe17h4689bb922b44a814E() unnamed_addr #0 {
start:
  %0 = call i1 @llvm.expect.i1(i1 false, i1 false)
  br i1 %0, label %panic.i, label %"_ZN4core3num21_$LT$impl$u20$u32$GT$10div_euclid17h35b293ca2cd8fed1E.exit"

panic.i:                                          ; preds = %start
; call core::panicking::panic
  call void @_ZN4core9panicking5panic17h5c1fb882612266ebE(ptr align 1 @str.0, i64 25, ptr align 8 @alloc_96a2e670d7fdcb4626fcf6ae55de9150) #3
  unreachable

"_ZN4core3num21_$LT$impl$u20$u32$GT$10div_euclid17h35b293ca2cd8fed1E.exit": ; preds = %start
  ret void
}

; Function Attrs: nocallback nofree nosync nounwind willreturn memory(none)
declare i1 @llvm.expect.i1(i1, i1) #1

; core::panicking::panic
; Function Attrs: cold noinline noreturn uwtable
declare void @_ZN4core9panicking5panic17h5c1fb882612266ebE(ptr align 1, i64, ptr align 8) unnamed_addr #2

attributes #0 = { uwtable "target-cpu"="znver4" "target-features"="+prfchw,-cldemote,+avx,+aes,+sahf,+pclmul,-xop,+crc32,+xsaves,-avx512fp16,-sm4,+sse4.1,+avx512ifma,+xsave,-avx512pf,+sse4.2,-tsxldtrk,-ptwrite,-widekl,-sm3,+invpcid,+64bit,+xsavec,+avx512vpopcntdq,+cmov,-avx512vp2intersect,+avx512cd,+movbe,-avxvnniint8,-avx512er,-amx-int8,-kl,-sha512,-avxvnni,-rtm,+adx,+avx2,-hreset,-movdiri,-serialize,+vpclmulqdq,+avx512vl,-uintr,+clflushopt,-raoint,-cmpccxadd,+bmi,-amx-tile,+sse,+gfni,-avxvnniint16,-amx-fp16,+xsaveopt,+rdrnd,+avx512f,-amx-bf16,+avx512bf16,+avx512vnni,+cx8,+avx512bw,+sse3,-pku,+fsgsbase,+clzero,+mwaitx,-lwp,+lzcnt,+sha,-movdir64b,+wbnoinvd,-enqcmd,-prefetchwt1,-avxneconvert,-tbm,-pconfig,-amx-complex,+ssse3,+cx16,+bmi2,+fma,+popcnt,-avxifma,+f16c,+avx512bitalg,+rdpru,+clwb,+mmx,+sse2,+rdseed,+avx512vbmi2,-prefetchi,+rdpid,-fma4,+avx512vbmi,+shstk,+vaes,-waitpkg,-sgx,+fxsr,+avx512dq,+sse4a" }
attributes #1 = { nocallback nofree nosync nounwind willreturn memory(none) }
attributes #2 = { cold noinline noreturn uwtable "target-cpu"="znver4" "target-features"="+prfchw,-cldemote,+avx,+aes,+sahf,+pclmul,-xop,+crc32,+xsaves,-avx512fp16,-sm4,+sse4.1,+avx512ifma,+xsave,-avx512pf,+sse4.2,-tsxldtrk,-ptwrite,-widekl,-sm3,+invpcid,+64bit,+xsavec,+avx512vpopcntdq,+cmov,-avx512vp2intersect,+avx512cd,+movbe,-avxvnniint8,-avx512er,-amx-int8,-kl,-sha512,-avxvnni,-rtm,+adx,+avx2,-hreset,-movdiri,-serialize,+vpclmulqdq,+avx512vl,-uintr,+clflushopt,-raoint,-cmpccxadd,+bmi,-amx-tile,+sse,+gfni,-avxvnniint16,-amx-fp16,+xsaveopt,+rdrnd,+avx512f,-amx-bf16,+avx512bf16,+avx512vnni,+cx8,+avx512bw,+sse3,-pku,+fsgsbase,+clzero,+mwaitx,-lwp,+lzcnt,+sha,-movdir64b,+wbnoinvd,-enqcmd,-prefetchwt1,-avxneconvert,-tbm,-pconfig,-amx-complex,+ssse3,+cx16,+bmi2,+fma,+popcnt,-avxifma,+f16c,+avx512bitalg,+rdpru,+clwb,+mmx,+sse2,+rdseed,+avx512vbmi2,-prefetchi,+rdpid,-fma4,+avx512vbmi,+shstk,+vaes,-waitpkg,-sgx,+fxsr,+avx512dq,+sse4a" }
attributes #3 = { noreturn }

!llvm.module.flags = !{!0}
!llvm.ident = !{!1}

!0 = !{i32 8, !"PIC Level", i32 2}
!1 = !{!"rustc version 1.75.0 (82e1608df 2023-12-21)"}
